target datalayout = "e-m:e-p270:32:32-p271:32:32-p272:64:64-i64:64-i128:128-f80:128-n8:16:32:64-S128"
target triple = "x86_64-pc-linux-gnu"

%struct.ident_t = type { i32, i32, i32, i32, ptr }
%struct.Qureg = type { i32, i32, i32, i64, i64, i32, i32, %struct.ComplexArray, %struct.ComplexArray, %struct.ComplexArray, ptr, ptr, ptr, ptr, ptr, ptr }
%struct.ComplexArray = type { ptr, ptr }

@1 = private unnamed_addr constant %struct.ident_t { i32 0, i32 514, i32 0, i32 22, ptr @0 }, align 8
@2 = private unnamed_addr constant %struct.ident_t { i32 0, i32 66, i32 0, i32 22, ptr @0 }, align 8

; Function Attrs: inlinehint nounwind uwtable
define internal i32 @extractBit(i32 noundef %0, i64 noundef %1) #7 {
  %3 = alloca i32, align 4
  %4 = alloca i64, align 8
  store i32 %0, ptr %3, align 4, !tbaa !8
  store i64 %1, ptr %4, align 8, !tbaa !4
  %5 = load i64, ptr %4, align 8, !tbaa !4
  %6 = load i32, ptr %3, align 4, !tbaa !8
  %7 = zext i32 %6 to i64
  %8 = shl i64 1, %7
  %9 = and i64 %5, %8
  %10 = load i32, ptr %3, align 4, !tbaa !8
  %11 = zext i32 %10 to i64
  %12 = ashr i64 %9, %11
  %13 = trunc i64 %12 to i32
  ret i32 %13
}

; Function Attrs: alwaysinline norecurse nounwind uwtable
define internal void @densmatr_mixDepolarisingDistributed.omp_outlined(ptr noalias noundef %0, ptr noalias noundef %1, ptr noundef nonnull align 8 dereferenceable(8) %2, ptr noundef nonnull align 8 dereferenceable(8) %3, ptr noundef nonnull align 8 dereferenceable(8) %4, ptr noundef nonnull align 8 dereferenceable(8) %5, ptr noundef nonnull align 8 dereferenceable(8) %6, ptr noundef nonnull align 4 dereferenceable(4) %7, ptr noundef nonnull align 8 dereferenceable(136) %8, ptr noundef nonnull align 8 dereferenceable(8) %9) #2 {
  %11 = alloca ptr, align 8
  %12 = alloca ptr, align 8
  %13 = alloca ptr, align 8
  %14 = alloca ptr, align 8
  %15 = alloca ptr, align 8
  %16 = alloca ptr, align 8
  %17 = alloca ptr, align 8
  %18 = alloca ptr, align 8
  %19 = alloca ptr, align 8
  %20 = alloca ptr, align 8
  %21 = alloca i64, align 8
  %22 = alloca i64, align 8
  %23 = alloca i64, align 8
  %24 = alloca i64, align 8
  %25 = alloca i64, align 8
  %26 = alloca i32, align 4
  %27 = alloca i64, align 8
  %28 = alloca i64, align 8
  %29 = alloca i64, align 8
  %30 = alloca i64, align 8
  %31 = alloca i64, align 8
  %32 = alloca i64, align 8
  %33 = alloca i64, align 8
  %34 = alloca i32, align 4
  %35 = alloca i64, align 8
  store ptr %0, ptr %11, align 8, !tbaa !19
  store ptr %1, ptr %12, align 8, !tbaa !19
  store ptr %2, ptr %13, align 8, !tbaa !21
  store ptr %3, ptr %14, align 8, !tbaa !21
  store ptr %4, ptr %15, align 8, !tbaa !21
  store ptr %5, ptr %16, align 8, !tbaa !21
  store ptr %6, ptr %17, align 8, !tbaa !21
  store ptr %7, ptr %18, align 8, !tbaa !19
  store ptr %8, ptr %19, align 8, !tbaa !23
  store ptr %9, ptr %20, align 8, !tbaa !25
  %36 = load ptr, ptr %13, align 8, !tbaa !21
  %37 = load ptr, ptr %14, align 8, !tbaa !21
  %38 = load ptr, ptr %15, align 8, !tbaa !21
  %39 = load ptr, ptr %16, align 8, !tbaa !21
  %40 = load ptr, ptr %17, align 8, !tbaa !21
  %41 = load ptr, ptr %18, align 8, !tbaa !19
  %42 = load ptr, ptr %19, align 8, !tbaa !23
  %43 = load ptr, ptr %20, align 8, !tbaa !25
  call void @llvm.lifetime.start.p0(i64 8, ptr %21) #3
  call void @llvm.lifetime.start.p0(i64 8, ptr %22) #3
  call void @llvm.lifetime.start.p0(i64 8, ptr %23) #3
  call void @llvm.lifetime.start.p0(i64 8, ptr %24) #3
  call void @llvm.lifetime.start.p0(i64 8, ptr %25) #3
  call void @llvm.lifetime.start.p0(i64 4, ptr %26) #3
  call void @llvm.lifetime.start.p0(i64 8, ptr %27) #3
  call void @llvm.lifetime.start.p0(i64 8, ptr %28) #3
  %44 = load i64, ptr %36, align 8, !tbaa !4
  store i64 %44, ptr %28, align 8, !tbaa !4
  call void @llvm.lifetime.start.p0(i64 8, ptr %29) #3
  %45 = load i64, ptr %28, align 8, !tbaa !4
  %46 = sub nsw i64 %45, 0
  %47 = sdiv i64 %46, 1
  %48 = sub nsw i64 %47, 1
  store i64 %48, ptr %29, align 8, !tbaa !4
  call void @llvm.lifetime.start.p0(i64 8, ptr %30) #3
  store i64 0, ptr %30, align 8, !tbaa !4
  call void @llvm.lifetime.end.p0(i64 8, ptr %30) #3
  %49 = load i64, ptr %28, align 8, !tbaa !4
  %50 = icmp slt i64 0, %49
  br i1 %50, label %51, label %185

51:                                               ; preds = %10
  call void @llvm.lifetime.start.p0(i64 8, ptr %31) #3
  store i64 0, ptr %31, align 8, !tbaa !4
  call void @llvm.lifetime.start.p0(i64 8, ptr %32) #3
  %52 = load i64, ptr %29, align 8, !tbaa !4
  store i64 %52, ptr %32, align 8, !tbaa !4
  call void @llvm.lifetime.start.p0(i64 8, ptr %33) #3
  store i64 1, ptr %33, align 8, !tbaa !4
  call void @llvm.lifetime.start.p0(i64 4, ptr %34) #3
  store i32 0, ptr %34, align 4, !tbaa !8
  call void @llvm.lifetime.start.p0(i64 8, ptr %35) #3
  %53 = load ptr, ptr %11, align 8
  %54 = load i32, ptr %53, align 4, !tbaa !8
  call void @__kmpc_for_static_init_8(ptr @1, i32 %54, i32 34, ptr %34, ptr %31, ptr %32, ptr %33, i64 1, i64 1)
  %55 = load i64, ptr %32, align 8, !tbaa !4
  %56 = load i64, ptr %29, align 8, !tbaa !4
  %57 = icmp sgt i64 %55, %56
  br i1 %57, label %58, label %60

58:                                               ; preds = %51
  %59 = load i64, ptr %29, align 8, !tbaa !4
  br label %62

60:                                               ; preds = %51
  %61 = load i64, ptr %32, align 8, !tbaa !4
  br label %62

62:                                               ; preds = %60, %58
  %63 = phi i64 [ %59, %58 ], [ %61, %60 ]
  store i64 %63, ptr %32, align 8, !tbaa !4
  %64 = load i64, ptr %31, align 8, !tbaa !4
  store i64 %64, ptr %27, align 8, !tbaa !4
  br label %65

65:                                               ; preds = %178, %62
  %66 = load i64, ptr %27, align 8, !tbaa !4
  %67 = load i64, ptr %32, align 8, !tbaa !4
  %68 = icmp sle i64 %66, %67
  br i1 %68, label %70, label %69

69:                                               ; preds = %65
  br label %181

70:                                               ; preds = %65
  %71 = load i64, ptr %27, align 8, !tbaa !4
  %72 = mul nsw i64 %71, 1
  %73 = add nsw i64 0, %72
  store i64 %73, ptr %35, align 8, !tbaa !4
  %74 = load i64, ptr %35, align 8, !tbaa !4
  %75 = load i64, ptr %37, align 8, !tbaa !4
  %76 = sdiv i64 %74, %75
  store i64 %76, ptr %22, align 8, !tbaa !4
  %77 = load i64, ptr %35, align 8, !tbaa !4
  %78 = load i64, ptr %37, align 8, !tbaa !4
  %79 = sub nsw i64 %78, 1
  %80 = and i64 %77, %79
  store i64 %80, ptr %24, align 8, !tbaa !4
  %81 = load i64, ptr %24, align 8, !tbaa !4
  %82 = load i64, ptr %38, align 8, !tbaa !4
  %83 = sdiv i64 %81, %82
  store i64 %83, ptr %21, align 8, !tbaa !4
  %84 = load i64, ptr %35, align 8, !tbaa !4
  %85 = load i64, ptr %38, align 8, !tbaa !4
  %86 = sub nsw i64 %85, 1
  %87 = and i64 %84, %86
  store i64 %87, ptr %25, align 8, !tbaa !4
  %88 = load i64, ptr %22, align 8, !tbaa !4
  %89 = load i64, ptr %39, align 8, !tbaa !4
  %90 = mul nsw i64 %88, %89
  %91 = load i64, ptr %21, align 8, !tbaa !4
  %92 = load i64, ptr %40, align 8, !tbaa !4
  %93 = mul nsw i64 %91, %92
  %94 = add nsw i64 %90, %93
  %95 = load i64, ptr %25, align 8, !tbaa !4
  %96 = add nsw i64 %94, %95
  store i64 %96, ptr %23, align 8, !tbaa !4
  %97 = load i32, ptr %41, align 4, !tbaa !8
  %98 = load i64, ptr %23, align 8, !tbaa !4
  %99 = getelementptr inbounds nuw %struct.Qureg, ptr %42, i32 0, i32 3
  %100 = load i64, ptr %99, align 8, !tbaa !12
  %101 = getelementptr inbounds nuw %struct.Qureg, ptr %42, i32 0, i32 5
  %102 = load i32, ptr %101, align 8, !tbaa !26
  %103 = sext i32 %102 to i64
  %104 = mul nsw i64 %100, %103
  %105 = add nsw i64 %98, %104
  %106 = getelementptr inbounds nuw %struct.Qureg, ptr %42, i32 0, i32 1
  %107 = load i32, ptr %106, align 4, !tbaa !18
  %108 = zext i32 %107 to i64
  %109 = ashr i64 %105, %108
  %110 = call i32 @extractBit(i32 noundef %97, i64 noundef %109)
  store i32 %110, ptr %26, align 4, !tbaa !8
  %111 = load i32, ptr %26, align 4, !tbaa !8
  %112 = sext i32 %111 to i64
  %113 = load i64, ptr %38, align 8, !tbaa !4
  %114 = mul nsw i64 %112, %113
  %115 = load i64, ptr %23, align 8, !tbaa !4
  %116 = add nsw i64 %115, %114
  store i64 %116, ptr %23, align 8, !tbaa !4
  %117 = load double, ptr %43, align 8, !tbaa !10
  %118 = fsub double 1.000000e+00, %117
  %119 = getelementptr inbounds nuw %struct.Qureg, ptr %42, i32 0, i32 7
  %120 = getelementptr inbounds nuw %struct.ComplexArray, ptr %119, i32 0, i32 0
  %121 = load ptr, ptr %120, align 8, !tbaa !27
  %122 = load i64, ptr %23, align 8, !tbaa !4
  %123 = getelementptr inbounds double, ptr %121, i64 %122
  %124 = load double, ptr %123, align 8, !tbaa !10
  %125 = load double, ptr %43, align 8, !tbaa !10
  %126 = getelementptr inbounds nuw %struct.Qureg, ptr %42, i32 0, i32 7
  %127 = getelementptr inbounds nuw %struct.ComplexArray, ptr %126, i32 0, i32 0
  %128 = load ptr, ptr %127, align 8, !tbaa !27
  %129 = load i64, ptr %23, align 8, !tbaa !4
  %130 = getelementptr inbounds double, ptr %128, i64 %129
  %131 = load double, ptr %130, align 8, !tbaa !10
  %132 = getelementptr inbounds nuw %struct.Qureg, ptr %42, i32 0, i32 8
  %133 = getelementptr inbounds nuw %struct.ComplexArray, ptr %132, i32 0, i32 0
  %134 = load ptr, ptr %133, align 8, !tbaa !31
  %135 = load i64, ptr %35, align 8, !tbaa !4
  %136 = getelementptr inbounds double, ptr %134, i64 %135
  %137 = load double, ptr %136, align 8, !tbaa !10
  %138 = fadd double %131, %137
  %139 = fmul double %125, %138
  %140 = fdiv double %139, 2.000000e+00
  %141 = call double @llvm.fmuladd.f64(double %118, double %124, double %140)
  %142 = getelementptr inbounds nuw %struct.Qureg, ptr %42, i32 0, i32 7
  %143 = getelementptr inbounds nuw %struct.ComplexArray, ptr %142, i32 0, i32 0
  %144 = load ptr, ptr %143, align 8, !tbaa !27
  %145 = load i64, ptr %23, align 8, !tbaa !4
  %146 = getelementptr inbounds double, ptr %144, i64 %145
  store double %141, ptr %146, align 8, !tbaa !10
  %147 = load double, ptr %43, align 8, !tbaa !10
  %148 = fsub double 1.000000e+00, %147
  %149 = getelementptr inbounds nuw %struct.Qureg, ptr %42, i32 0, i32 7
  %150 = getelementptr inbounds nuw %struct.ComplexArray, ptr %149, i32 0, i32 1
  %151 = load ptr, ptr %150, align 8, !tbaa !28
  %152 = load i64, ptr %23, align 8, !tbaa !4
  %153 = getelementptr inbounds double, ptr %151, i64 %152
  %154 = load double, ptr %153, align 8, !tbaa !10
  %155 = load double, ptr %43, align 8, !tbaa !10
  %156 = getelementptr inbounds nuw %struct.Qureg, ptr %42, i32 0, i32 7
  %157 = getelementptr inbounds nuw %struct.ComplexArray, ptr %156, i32 0, i32 1
  %158 = load ptr, ptr %157, align 8, !tbaa !28
  %159 = load i64, ptr %23, align 8, !tbaa !4
  %160 = getelementptr inbounds double, ptr %158, i64 %159
  %161 = load double, ptr %160, align 8, !tbaa !10
  %162 = getelementptr inbounds nuw %struct.Qureg, ptr %42, i32 0, i32 8
  %163 = getelementptr inbounds nuw %struct.ComplexArray, ptr %162, i32 0, i32 1
  %164 = load ptr, ptr %163, align 8, !tbaa !32
  %165 = load i64, ptr %35, align 8, !tbaa !4
  %166 = getelementptr inbounds double, ptr %164, i64 %165
  %167 = load double, ptr %166, align 8, !tbaa !10
  %168 = fadd double %161, %167
  %169 = fmul double %155, %168
  %170 = fdiv double %169, 2.000000e+00
  %171 = call double @llvm.fmuladd.f64(double %148, double %154, double %170)
  %172 = getelementptr inbounds nuw %struct.Qureg, ptr %42, i32 0, i32 7
  %173 = getelementptr inbounds nuw %struct.ComplexArray, ptr %172, i32 0, i32 1
  %174 = load ptr, ptr %173, align 8, !tbaa !28
  %175 = load i64, ptr %23, align 8, !tbaa !4
  %176 = getelementptr inbounds double, ptr %174, i64 %175
  store double %171, ptr %176, align 8, !tbaa !10
  br label %177

177:                                              ; preds = %70
  br label %178

178:                                              ; preds = %177
  %179 = load i64, ptr %27, align 8, !tbaa !4
  %180 = add nsw i64 %179, 1
  store i64 %180, ptr %27, align 8, !tbaa !4
  br label %65

181:                                              ; preds = %69
  br label %182

182:                                              ; preds = %181
  %183 = load ptr, ptr %11, align 8
  %184 = load i32, ptr %183, align 4, !tbaa !8
  call void @__kmpc_for_static_fini(ptr @1, i32 %184)
  call void @llvm.lifetime.end.p0(i64 8, ptr %35) #3
  call void @llvm.lifetime.end.p0(i64 4, ptr %34) #3
  call void @llvm.lifetime.end.p0(i64 8, ptr %33) #3
  call void @llvm.lifetime.end.p0(i64 8, ptr %32) #3
  call void @llvm.lifetime.end.p0(i64 8, ptr %31) #3
  br label %185

185:                                              ; preds = %182, %10
  call void @llvm.lifetime.end.p0(i64 8, ptr %29) #3
  call void @llvm.lifetime.end.p0(i64 8, ptr %28) #3
  call void @llvm.lifetime.end.p0(i64 8, ptr %27) #3
  %186 = load ptr, ptr %11, align 8
  %187 = load i32, ptr %186, align 4, !tbaa !8
  call void @__kmpc_barrier(ptr @2, i32 %187)
  call void @llvm.lifetime.end.p0(i64 4, ptr %26) #3
  call void @llvm.lifetime.end.p0(i64 8, ptr %25) #3
  call void @llvm.lifetime.end.p0(i64 8, ptr %24) #3
  call void @llvm.lifetime.end.p0(i64 8, ptr %23) #3
  call void @llvm.lifetime.end.p0(i64 8, ptr %22) #3
  call void @llvm.lifetime.end.p0(i64 8, ptr %21) #3
  ret void
}