; Function Attrs: alwaysinline norecurse nounwind uwtable
define internal void @densmatr_mixDepolarisingDistributed.omp_outlined(ptr noalias noundef readonly captures(none) %0, ptr noalias readnone captures(none) %1, ptr noundef nonnull readonly align 8 captures(none) dereferenceable(8) %2, ptr noundef nonnull readonly align 8 captures(none) dereferenceable(8) %3, ptr noundef nonnull readonly align 8 captures(none) dereferenceable(8) %4, ptr noundef nonnull readonly align 8 captures(none) dereferenceable(8) %5, ptr noundef nonnull readonly align 8 captures(none) dereferenceable(8) %6, ptr noundef nonnull readonly align 4 captures(none) dereferenceable(4) %7, ptr noundef nonnull readonly align 8 captures(none) dereferenceable(136) %8, ptr noundef nonnull readonly align 8 captures(none) dereferenceable(8) %9) #3 {
  %11 = alloca i64, align 8
  %12 = alloca i64, align 8
  %13 = alloca i64, align 8
  %14 = alloca i32, align 4
  %15 = load i64, ptr %2, align 8, !tbaa !16
  %16 = icmp sgt i64 %15, 0
  %.pre = load i32, ptr %0, align 4, !tbaa !18
  br i1 %16, label %17, label %85

17:                                               ; preds = %10
  %18 = add nsw i64 %15, -1
  call void @llvm.lifetime.start.p0(i64 8, ptr nonnull %11) #4
  store i64 0, ptr %11, align 8, !tbaa !16
  call void @llvm.lifetime.start.p0(i64 8, ptr nonnull %12) #4
  store i64 %18, ptr %12, align 8, !tbaa !16
  call void @llvm.lifetime.start.p0(i64 8, ptr nonnull %13) #4
  store i64 1, ptr %13, align 8, !tbaa !16
  call void @llvm.lifetime.start.p0(i64 4, ptr nonnull %14) #4
  store i32 0, ptr %14, align 4, !tbaa !18
  call void @__kmpc_for_static_init_8(ptr nonnull @1, i32 %.pre, i32 34, ptr nonnull %14, ptr nonnull %11, ptr nonnull %12, ptr nonnull %13, i64 1, i64 1)
  %19 = load i64, ptr %12, align 8, !tbaa !16
  %20 = call i64 @llvm.smin.i64(i64 %19, i64 %18)
  store i64 %20, ptr %12, align 8, !tbaa !16
  %21 = load i64, ptr %11, align 8, !tbaa !16
  %.not36 = icmp sgt i64 %21, %20
  br i1 %.not36, label %._crit_edge, label %.lr.ph

.lr.ph:                                           ; preds = %17
  %22 = load i64, ptr %3, align 8, !tbaa !16
  %23 = add nsw i64 %22, -1
  %24 = load i64, ptr %4, align 8, !tbaa !16
  %25 = add nsw i64 %24, -1
  %26 = load i64, ptr %5, align 8, !tbaa !16
  %27 = load i64, ptr %6, align 8, !tbaa !16
  %28 = load i32, ptr %7, align 4, !tbaa !18
  %29 = getelementptr inbounds nuw i8, ptr %8, i64 16
  %30 = load i64, ptr %29, align 8, !tbaa !8
  %31 = getelementptr inbounds nuw i8, ptr %8, i64 32
  %32 = load i32, ptr %31, align 8, !tbaa !19
  %33 = sext i32 %32 to i64
  %34 = mul nsw i64 %30, %33
  %35 = getelementptr inbounds nuw i8, ptr %8, i64 4
  %36 = load i32, ptr %35, align 4, !tbaa !17
  %37 = zext nneg i32 %36 to i64
  %38 = zext i32 %28 to i64
  %39 = shl nuw i64 1, %38
  %40 = getelementptr inbounds nuw i8, ptr %8, i64 40
  %41 = load ptr, ptr %40, align 8, !tbaa !22
  %42 = getelementptr inbounds nuw i8, ptr %8, i64 56
  %43 = load ptr, ptr %42, align 8, !tbaa !23
  %44 = getelementptr inbounds nuw i8, ptr %8, i64 48
  %45 = load ptr, ptr %44, align 8, !tbaa !24
  %46 = getelementptr inbounds nuw i8, ptr %8, i64 64
  %47 = load ptr, ptr %46, align 8, !tbaa !25
  br label %48

48:                                               ; preds = %.lr.ph, %48
  %.037 = phi i64 [ %21, %.lr.ph ], [ %84, %48 ]
  %49 = sdiv i64 %.037, %22
  %50 = and i64 %23, %.037
  %51 = sdiv i64 %50, %24
  %52 = and i64 %25, %.037
  %53 = mul nsw i64 %26, %49
  %54 = mul nsw i64 %27, %51
  %55 = add i64 %53, %52
  %56 = add i64 %55, %54
  %57 = add nsw i64 %34, %56
  %58 = ashr i64 %57, %37
  %59 = and i64 %58, %39
  %60 = ashr i64 %59, %38
  %sext = shl i64 %60, 32
  %61 = ashr exact i64 %sext, 32
  %62 = mul nsw i64 %61, %24
  %63 = add nsw i64 %62, %56
  %64 = load double, ptr %9, align 8, !tbaa !4
  %65 = fsub double 1.000000e+00, %64
  %66 = getelementptr inbounds double, ptr %41, i64 %63
  %67 = load double, ptr %66, align 8, !tbaa !4
  %68 = getelementptr inbounds double, ptr %43, i64 %.037
  %69 = load double, ptr %68, align 8, !tbaa !4
  %70 = fadd double %67, %69
  %71 = fmul double %64, %70
  %72 = fmul double %71, 5.000000e-01
  %73 = call double @llvm.fmuladd.f64(double %65, double %67, double %72)
  store double %73, ptr %66, align 8, !tbaa !4
  %74 = load double, ptr %9, align 8, !tbaa !4
  %75 = fsub double 1.000000e+00, %74
  %76 = getelementptr inbounds double, ptr %45, i64 %63
  %77 = load double, ptr %76, align 8, !tbaa !4
  %78 = getelementptr inbounds double, ptr %47, i64 %.037
  %79 = load double, ptr %78, align 8, !tbaa !4
  %80 = fadd double %77, %79
  %81 = fmul double %74, %80
  %82 = fmul double %81, 5.000000e-01
  %83 = call double @llvm.fmuladd.f64(double %75, double %77, double %82)
  store double %83, ptr %76, align 8, !tbaa !4
  %84 = add i64 %.037, 1
  %exitcond.not = icmp eq i64 %.037, %20
  br i1 %exitcond.not, label %._crit_edge, label %48

._crit_edge:                                      ; preds = %48, %17
  call void @__kmpc_for_static_fini(ptr nonnull @1, i32 %.pre)
  call void @llvm.lifetime.end.p0(i64 4, ptr nonnull %14) #4
  call void @llvm.lifetime.end.p0(i64 8, ptr nonnull %13) #4
  call void @llvm.lifetime.end.p0(i64 8, ptr nonnull %12) #4
  call void @llvm.lifetime.end.p0(i64 8, ptr nonnull %11) #4
  br label %85

85:                                               ; preds = %._crit_edge, %10
  call void @__kmpc_barrier(ptr nonnull @2, i32 %.pre)
  ret void
}